target datalayout = "e-m:e-p270:32:32-p271:32:32-p272:64:64-i64:64-i128:128-f80:128-n8:16:32:64-S128"
target triple = "x86_64-pc-linux-gnu"

@the_repository = external global ptr, align 8
@.str.19 = private unnamed_addr constant [29 x i8] c"unable to create object '%s'\00", align 1

; Function Attrs: nounwind uwtable
define internal i32 @mark_object_seen(ptr noundef %0, i32 noundef %1, i32 noundef %2, i32 noundef %3, ptr noundef %4, i64 noundef %5) #0 {
  %7 = alloca ptr, align 8
  %8 = alloca i32, align 4
  %9 = alloca i32, align 4
  %10 = alloca i32, align 4
  %11 = alloca ptr, align 8
  %12 = alloca i64, align 8
  %13 = alloca ptr, align 8
  store ptr %0, ptr %7, align 8, !tbaa !69
  store i32 %1, ptr %8, align 4, !tbaa !12
  store i32 %2, ptr %9, align 4, !tbaa !12
  store i32 %3, ptr %10, align 4, !tbaa !12
  store ptr %4, ptr %11, align 8, !tbaa !77
  store i64 %5, ptr %12, align 8, !tbaa !9
  call void @llvm.lifetime.start.p0(i64 8, ptr %13) #9
  %14 = load ptr, ptr @the_repository, align 8, !tbaa !71
  %15 = load ptr, ptr %7, align 8, !tbaa !69
  %16 = load i32, ptr %8, align 4, !tbaa !12
  %17 = call ptr @lookup_object_by_type(ptr noundef %14, ptr noundef %15, i32 noundef %16)
  store ptr %17, ptr %13, align 8, !tbaa !72
  %18 = load ptr, ptr %13, align 8, !tbaa !72
  %19 = icmp ne ptr %18, null
  br i1 %19, label %23, label %20

20:                                               ; preds = %6
  %21 = load ptr, ptr %7, align 8, !tbaa !69
  %22 = call ptr @oid_to_hex(ptr noundef %21)
  call void (ptr, ...) @die(ptr noundef @.str.19, ptr noundef %22) #11
  unreachable

23:                                               ; preds = %6
  %24 = load ptr, ptr %13, align 8, !tbaa !72
  %25 = load i32, ptr %24, align 4
  %26 = lshr i32 %25, 4
  %27 = or i32 %26, 1
  %28 = load i32, ptr %24, align 4
  %29 = and i32 %27, 268435455
  %30 = shl i32 %29, 4
  %31 = and i32 %28, 15
  %32 = or i32 %31, %30
  store i32 %32, ptr %24, align 4
  call void @llvm.lifetime.end.p0(i64 8, ptr %13) #9
  ret i32 0
}