; Function Attrs: nounwind uwtable
define internal noundef i32 @mark_object_seen(ptr noundef %0, i32 noundef %1, i32 %2, i32 %3, ptr readnone captures(none) %4, i64 %5) #0 {
  %7 = load ptr, ptr @the_repository, align 8, !tbaa !65
  %8 = tail call ptr @lookup_object_by_type(ptr noundef %7, ptr noundef %0, i32 noundef %1) #11
  %.not = icmp eq ptr %8, null
  br i1 %.not, label %9, label %11

9:                                                ; preds = %6
  %10 = tail call ptr @oid_to_hex(ptr noundef %0) #11
  tail call void (ptr, ...) @die(ptr noundef nonnull @.str.19, ptr noundef %10) #13
  unreachable

11:                                               ; preds = %6
  %12 = load i32, ptr %8, align 4
  %13 = or i32 %12, 16
  store i32 %13, ptr %8, align 4
  ret i32 0
}